; ModuleID = '10/1735.c'
source_filename = "10/1735.c"
target datalayout = "e-m:e-p270:32:32-p271:32:32-p272:64:64-i64:64-f80:128-n8:16:32:64-S128"
target triple = "x86_64-pc-linux-gnu"

@.str = private unnamed_addr constant [3 x i8] c"%d\00", align 1

; Function Attrs: noinline nounwind uwtable
define dso_local i32 @main() #0 {
  %1 = alloca i32, align 4
  %2 = alloca i32, align 4
  %3 = alloca i8*, align 8
  %4 = alloca i64, align 8
  %5 = alloca i64, align 8
  %6 = alloca i32, align 4
  %7 = alloca i32, align 4
  %8 = alloca i32, align 4
  %9 = alloca i32, align 4
  %10 = alloca i32, align 4
  store i32 0, i32* %1, align 4
  %11 = call i32 (i8*, ...) @__isoc99_scanf(i8* getelementptr inbounds ([3 x i8], [3 x i8]* @.str, i64 0, i64 0), i32* %2)
  %12 = load i32, i32* %2, align 4
  %13 = zext i32 %12 to i64
  %14 = call i8* @llvm.stacksave()
  store i8* %14, i8** %3, align 8
  %15 = alloca i32, i64 %13, align 16
  store i64 %13, i64* %4, align 8
  %16 = load i32, i32* %2, align 4
  %17 = zext i32 %16 to i64
  %18 = alloca i32, i64 %17, align 16
  store i64 %17, i64* %5, align 8
  store i32 0, i32* %6, align 4
  store i32 0, i32* %7, align 4
  br label %19

19:                                               ; preds = %31, %0
  %20 = load i32, i32* %7, align 4
  %21 = load i32, i32* %2, align 4
  %22 = icmp slt i32 %20, %21
  br i1 %22, label %23, label %34

23:                                               ; preds = %19
  %24 = load i32, i32* %7, align 4
  %25 = sext i32 %24 to i64
  %26 = getelementptr inbounds i32, i32* %15, i64 %25
  %27 = call i32 (i8*, ...) @__isoc99_scanf(i8* getelementptr inbounds ([3 x i8], [3 x i8]* @.str, i64 0, i64 0), i32* %26)
  %28 = load i32, i32* %7, align 4
  %29 = sext i32 %28 to i64
  %30 = getelementptr inbounds i32, i32* %18, i64 %29
  store i32 1, i32* %30, align 4
  br label %31

31:                                               ; preds = %23
  %32 = load i32, i32* %7, align 4
  %33 = add nsw i32 %32, 1
  store i32 %33, i32* %7, align 4
  br label %19

34:                                               ; preds = %19
  %35 = load i32, i32* %2, align 4
  %36 = sub nsw i32 %35, 1
  store i32 %36, i32* %8, align 4
  br label %37

37:                                               ; preds = %81, %34
  %38 = load i32, i32* %8, align 4
  %39 = icmp sge i32 %38, 0
  br i1 %39, label %40, label %84

40:                                               ; preds = %37
  %41 = load i32, i32* %8, align 4
  %42 = sub nsw i32 %41, 1
  store i32 %42, i32* %9, align 4
  br label %43

43:                                               ; preds = %77, %40
  %44 = load i32, i32* %9, align 4
  %45 = icmp sge i32 %44, 0
  br i1 %45, label %46, label %80

46:                                               ; preds = %43
  %47 = load i32, i32* %9, align 4
  %48 = sext i32 %47 to i64
  %49 = getelementptr inbounds i32, i32* %15, i64 %48
  %50 = load i32, i32* %49, align 4
  %51 = load i32, i32* %8, align 4
  %52 = sext i32 %51 to i64
  %53 = getelementptr inbounds i32, i32* %15, i64 %52
  %54 = load i32, i32* %53, align 4
  %55 = icmp sge i32 %50, %54
  br i1 %55, label %56, label %76

56:                                               ; preds = %46
  %57 = load i32, i32* %9, align 4
  %58 = sext i32 %57 to i64
  %59 = getelementptr inbounds i32, i32* %18, i64 %58
  %60 = load i32, i32* %59, align 4
  %61 = load i32, i32* %8, align 4
  %62 = sext i32 %61 to i64
  %63 = getelementptr inbounds i32, i32* %18, i64 %62
  %64 = load i32, i32* %63, align 4
  %65 = add nsw i32 %64, 1
  %66 = icmp slt i32 %60, %65
  br i1 %66, label %67, label %76

67:                                               ; preds = %56
  %68 = load i32, i32* %8, align 4
  %69 = sext i32 %68 to i64
  %70 = getelementptr inbounds i32, i32* %18, i64 %69
  %71 = load i32, i32* %70, align 4
  %72 = add nsw i32 %71, 1
  %73 = load i32, i32* %9, align 4
  %74 = sext i32 %73 to i64
  %75 = getelementptr inbounds i32, i32* %18, i64 %74
  store i32 %72, i32* %75, align 4
  br label %76

76:                                               ; preds = %67, %56, %46
  br label %77

77:                                               ; preds = %76
  %78 = load i32, i32* %9, align 4
  %79 = add nsw i32 %78, -1
  store i32 %79, i32* %9, align 4
  br label %43

80:                                               ; preds = %43
  br label %81

81:                                               ; preds = %80
  %82 = load i32, i32* %8, align 4
  %83 = add nsw i32 %82, -1
  store i32 %83, i32* %8, align 4
  br label %37

84:                                               ; preds = %37
  store i32 0, i32* %10, align 4
  br label %85

85:                                               ; preds = %102, %84
  %86 = load i32, i32* %10, align 4
  %87 = load i32, i32* %2, align 4
  %88 = icmp slt i32 %86, %87
  br i1 %88, label %89, label %105

89:                                               ; preds = %85
  %90 = load i32, i32* %6, align 4
  %91 = load i32, i32* %10, align 4
  %92 = sext i32 %91 to i64
  %93 = getelementptr inbounds i32, i32* %18, i64 %92
  %94 = load i32, i32* %93, align 4
  %95 = icmp slt i32 %90, %94
  br i1 %95, label %96, label %101

96:                                               ; preds = %89
  %97 = load i32, i32* %10, align 4
  %98 = sext i32 %97 to i64
  %99 = getelementptr inbounds i32, i32* %18, i64 %98
  %100 = load i32, i32* %99, align 4
  store i32 %100, i32* %6, align 4
  br label %101

101:                                              ; preds = %96, %89
  br label %102

102:                                              ; preds = %101
  %103 = load i32, i32* %10, align 4
  %104 = add nsw i32 %103, 1
  store i32 %104, i32* %10, align 4
  br label %85

105:                                              ; preds = %85
  %106 = load i32, i32* %6, align 4
  %107 = call i32 (i8*, ...) @printf(i8* getelementptr inbounds ([3 x i8], [3 x i8]* @.str, i64 0, i64 0), i32 %106)
  %108 = load i8*, i8** %3, align 8
  call void @llvm.stackrestore(i8* %108)
  %109 = load i32, i32* %1, align 4
  ret i32 %109
}

declare dso_local i32 @__isoc99_scanf(i8*, ...) #1

; Function Attrs: nounwind
declare i8* @llvm.stacksave() #2

declare dso_local i32 @printf(i8*, ...) #1

; Function Attrs: nounwind
declare void @llvm.stackrestore(i8*) #2


!llvm.module.flags = !{!0}
!llvm.ident = !{!1}

!0 = !{i32 1, !"wchar_size", i32 4}
!1 = !{!"clang version 10.0.0-4ubuntu1 "}
